; Function Attrs: mustprogress uwtable
define void @_ZN9grpc_core20GrpcRegisteredMethod12DisplayValueB5cxx11EPv(ptr noalias sret(%"class.std::__cxx11::basic_string") align 8 %agg.result, ptr noundef %x) local_unnamed_addr #3 align 2 personality ptr @__gxx_personality_v0 {
entry:
  %ref.tmp.i = alloca [1 x %"class.absl::lts_20230802::str_format_internal::FormatArgImpl"], align 8
  call void @llvm.lifetime.start.p0(i64 16, ptr nonnull %ref.tmp.i)
  store ptr %x, ptr %ref.tmp.i, align 8, !noalias !15
  %dispatcher_.i.i.i = getelementptr inbounds i8, ptr %ref.tmp.i, i64 8
  store ptr @_ZN4absl12lts_2023080219str_format_internal13FormatArgImpl8DispatchINS1_7VoidPtrEEEbNS2_4DataENS1_24FormatConversionSpecImplEPv, ptr %dispatcher_.i.i.i, align 8, !noalias !15
  call void @_ZN4absl12lts_2023080219str_format_internal10FormatPackB5cxx11ENS1_21UntypedFormatSpecImplENS0_4SpanIKNS1_13FormatArgImplEEE(ptr sret(%"class.std::__cxx11::basic_string") align 8 %agg.result, ptr nonnull @.str.25, i64 2, ptr nonnull %ref.tmp.i, i64 1)
  call void @llvm.lifetime.end.p0(i64 16, ptr nonnull %ref.tmp.i)
  ret void
}